; Function Attrs: cold mustprogress noinline noreturn uwtable
define dso_local void @_ZN4absl12log_internal14DieBecauseNullEPKciS2_(ptr noundef %0, i32 noundef %1, ptr noundef %2) local_unnamed_addr #0 personality ptr @__gxx_personality_v0 {
  %4 = alloca %"class.absl::log_internal::LogMessageFatal", align 8
  %5 = alloca %"class.std::__cxx11::basic_string", align 8
  %6 = alloca %"class.absl::AlphaNum", align 8
  %7 = alloca %"class.absl::AlphaNum", align 8
  %8 = alloca %"class.absl::AlphaNum", align 8
  call void @llvm.lifetime.start.p0(i64 16, ptr nonnull %4) #9
  call void @_ZN4absl12log_internal15LogMessageFatalC1EPKci(ptr noundef nonnull align 8 dereferenceable(16) %4, ptr noundef nonnull @.str, i32 noundef 26) #10
  %9 = call noundef i64 @strlen(ptr noundef nonnull dereferenceable(1) %0) #9
  %10 = invoke noundef nonnull align 8 dereferenceable(16) ptr @_ZN4absl12log_internal10LogMessage10AtLocationESt17basic_string_viewIcSt11char_traitsIcEEi(ptr noundef nonnull align 8 dereferenceable(16) %4, i64 %9, ptr nonnull %0, i32 noundef %1)
          to label %11 unwind label %21

11:                                               ; preds = %3
  call void @llvm.lifetime.start.p0(i64 32, ptr nonnull %5) #9
  call void @llvm.lifetime.start.p0(i64 48, ptr nonnull %6) #9
  store i64 15, ptr %6, align 8
  %12 = getelementptr inbounds nuw i8, ptr %6, i64 8
  store ptr @.str.1, ptr %12, align 8
  call void @llvm.lifetime.start.p0(i64 48, ptr nonnull %7) #9
  %.not.i.i = icmp eq ptr %2, null
  br i1 %.not.i.i, label %15, label %13

13:                                               ; preds = %11
  %14 = call noundef i64 @strlen(ptr noundef nonnull dereferenceable(1) %2) #9
  br label %15

15:                                               ; preds = %11, %13
  %.sroa.0.0.i.i = phi i64 [ %14, %13 ], [ 0, %11 ]
  store i64 %.sroa.0.0.i.i, ptr %7, align 8
  %16 = getelementptr inbounds nuw i8, ptr %7, i64 8
  store ptr %2, ptr %16, align 8
  call void @llvm.lifetime.start.p0(i64 48, ptr nonnull %8) #9
  store i64 18, ptr %8, align 8
  %17 = getelementptr inbounds nuw i8, ptr %8, i64 8
  store ptr @.str.2, ptr %17, align 8
  invoke void @_ZN4absl6StrCatB5cxx11ERKNS_8AlphaNumES2_S2_(ptr dead_on_unwind nonnull writable sret(%"class.std::__cxx11::basic_string") align 8 %5, ptr noundef nonnull align 8 dereferenceable(48) %6, ptr noundef nonnull align 8 dereferenceable(48) %7, ptr noundef nonnull align 8 dereferenceable(48) %8)
          to label %18 unwind label %23

18:                                               ; preds = %15
  %19 = invoke noundef nonnull align 8 dereferenceable(16) ptr @_ZN4absl12log_internal10LogMessagelsERKNSt7__cxx1112basic_stringIcSt11char_traitsIcESaIcEEE(ptr noundef nonnull align 8 dereferenceable(16) %10, ptr noundef nonnull align 8 dereferenceable(32) %5)
          to label %20 unwind label %25

20:                                               ; preds = %18
  call void @_ZNSt7__cxx1112basic_stringIcSt11char_traitsIcESaIcEED2Ev(ptr noundef nonnull align 8 dereferenceable(32) %5) #9
  call void @llvm.lifetime.end.p0(i64 48, ptr nonnull %8) #9
  call void @llvm.lifetime.end.p0(i64 48, ptr nonnull %7) #9
  call void @llvm.lifetime.end.p0(i64 48, ptr nonnull %6) #9
  call void @llvm.lifetime.end.p0(i64 32, ptr nonnull %5) #9
  call void @_ZN4absl12log_internal15LogMessageFatalD1Ev(ptr noundef nonnull align 8 dereferenceable(16) %4) #11
  unreachable

21:                                               ; preds = %3
  %22 = landingpad { ptr, i32 }
          cleanup
  br label %35

23:                                               ; preds = %15
  %24 = landingpad { ptr, i32 }
          cleanup
  br label %_ZNSt7__cxx1112basic_stringIcSt11char_traitsIcESaIcEED2Ev.exit

25:                                               ; preds = %18
  %26 = landingpad { ptr, i32 }
          cleanup
  %27 = load ptr, ptr %5, align 8, !tbaa !4
  %28 = getelementptr inbounds nuw i8, ptr %5, i64 16
  %29 = icmp eq ptr %27, %28
  br i1 %29, label %_ZNKSt7__cxx1112basic_stringIcSt11char_traitsIcESaIcEE11_M_is_localEv.exit.thread.i.i, label %_ZNKSt7__cxx1112basic_stringIcSt11char_traitsIcESaIcEE11_M_is_localEv.exit.i.i

_ZNKSt7__cxx1112basic_stringIcSt11char_traitsIcESaIcEE11_M_is_localEv.exit.thread.i.i: ; preds = %25
  %30 = getelementptr inbounds nuw i8, ptr %5, i64 8
  %31 = load i64, ptr %30, align 8, !tbaa !12
  %32 = icmp ult i64 %31, 16
  call void @llvm.assume(i1 %32)
  br label %_ZNSt7__cxx1112basic_stringIcSt11char_traitsIcESaIcEED2Ev.exit

_ZNKSt7__cxx1112basic_stringIcSt11char_traitsIcESaIcEE11_M_is_localEv.exit.i.i: ; preds = %25
  %33 = load i64, ptr %28, align 8, !tbaa !13
  %34 = add i64 %33, 1
  call void @_ZdlPvm(ptr noundef %27, i64 noundef %34) #12
  br label %_ZNSt7__cxx1112basic_stringIcSt11char_traitsIcESaIcEED2Ev.exit

_ZNSt7__cxx1112basic_stringIcSt11char_traitsIcESaIcEED2Ev.exit: ; preds = %_ZNKSt7__cxx1112basic_stringIcSt11char_traitsIcESaIcEE11_M_is_localEv.exit.i.i, %_ZNKSt7__cxx1112basic_stringIcSt11char_traitsIcESaIcEE11_M_is_localEv.exit.thread.i.i, %23
  call void @llvm.lifetime.end.p0(i64 48, ptr nonnull %8) #9
  call void @llvm.lifetime.end.p0(i64 48, ptr nonnull %7) #9
  call void @llvm.lifetime.end.p0(i64 48, ptr nonnull %6) #9
  call void @llvm.lifetime.end.p0(i64 32, ptr nonnull %5) #9
  br label %35

35:                                               ; preds = %_ZNSt7__cxx1112basic_stringIcSt11char_traitsIcESaIcEED2Ev.exit, %21
  call void @_ZN4absl12log_internal15LogMessageFatalD1Ev(ptr noundef nonnull align 8 dereferenceable(16) %4) #11
  unreachable
}